target datalayout = "e-m:e-p270:32:32-p271:32:32-p272:64:64-i64:64-i128:128-f80:128-n8:16:32:64-S128"
target triple = "x86_64-pc-linux-gnu"

%struct._packet_info = type { ptr, ptr, i32, i32, %struct.nstime_t, %struct.nstime_t, %struct.nstime_t, i8, ptr, ptr, ptr, ptr, %struct._address, %struct._address, %struct._address, %struct._address, %struct._address, %struct._address, i32, ptr, i8, [3 x i8], %struct.anon, i32, i32, i32, i32, ptr, i8, ptr, ptr, i16, i16, i32, i32, i16, i32, i32, ptr, ptr, ptr, i8, i8, i16, i16, i16, i32, i16, i16, ptr, ptr, ptr, ptr, ptr, i32, i32 }
%struct.nstime_t = type { i64, i32 }
%struct._address = type { i32, i32, ptr, ptr }
%struct.anon = type { i8, [3 x i8] }

@hf_gsm_a_rr_ec_imsi_digits = internal global i32 0, align 4
@hf_gsm_a_rr_ec_imsi = internal global i32 0, align 4
@digits = internal constant [16 x i8] c"0123456789??????", align 16

; Function Attrs: null_pointer_is_valid sspstrong uwtable
define internal i32 @dtap_rr_ec_paging_imsi(ptr noundef %0, ptr noundef %1, ptr noundef %2, i32 noundef %3) #1 {
  %5 = alloca ptr, align 8
  %6 = alloca ptr, align 8
  %7 = alloca ptr, align 8
  %8 = alloca i32, align 4
  %9 = alloca i64, align 8
  %10 = alloca i8, align 1
  %11 = alloca ptr, align 8
  %12 = alloca i32, align 4
  store ptr %0, ptr %5, align 8
  store ptr %1, ptr %6, align 8
  store ptr %2, ptr %7, align 8
  store i32 %3, ptr %8, align 4
  call void @llvm.lifetime.start.p0(i64 8, ptr %9) #11
  call void @llvm.lifetime.start.p0(i64 1, ptr %10) #11
  call void @llvm.lifetime.start.p0(i64 8, ptr %11) #11
  call void @llvm.lifetime.start.p0(i64 4, ptr %12) #11
  %13 = load ptr, ptr %7, align 8
  %14 = load i32, ptr @hf_gsm_a_rr_ec_imsi_digits, align 4
  %15 = load ptr, ptr %5, align 8
  %16 = load i32, ptr %8, align 4
  %17 = call ptr @proto_tree_add_bits_ret_val(ptr noundef %13, i32 noundef %14, ptr noundef %15, i32 noundef %16, i32 noundef 4, ptr noundef %9, i32 noundef 0)
  %18 = load i32, ptr %8, align 4
  %19 = add i32 %18, 4
  store i32 %19, ptr %8, align 4
  %20 = load i32, ptr %8, align 4
  store i32 %20, ptr %12, align 4
  %21 = load ptr, ptr %6, align 8
  %22 = getelementptr inbounds nuw %struct._packet_info, ptr %21, i32 0, i32 51
  %23 = load ptr, ptr %22, align 8
  %24 = load i64, ptr %9, align 8
  %25 = add i64 %24, 2
  %26 = call noalias ptr @wmem_strbuf_new_sized(ptr noundef %23, i64 noundef %25)
  store ptr %26, ptr %11, align 8
  store i8 0, ptr %10, align 1
  br label %27

27:                                               ; preds = %44, %4
  %28 = load i8, ptr %10, align 1
  %29 = zext i8 %28 to i32
  %30 = load i64, ptr %9, align 8
  %31 = trunc i64 %30 to i8
  %32 = zext i8 %31 to i32
  %33 = icmp sle i32 %29, %32
  br i1 %33, label %34, label %47

34:                                               ; preds = %27
  %35 = load ptr, ptr %11, align 8
  %36 = load ptr, ptr %5, align 8
  %37 = load i32, ptr %8, align 4
  %38 = call zeroext i8 @tvb_get_bits8(ptr noundef %36, i32 noundef %37, i32 noundef 4)
  %39 = zext i8 %38 to i64
  %40 = getelementptr [16 x i8], ptr @digits, i64 0, i64 %39
  %41 = load i8, ptr %40, align 1
  call void @wmem_strbuf_append_c(ptr noundef %35, i8 noundef signext %41)
  %42 = load i32, ptr %8, align 4
  %43 = add i32 %42, 4
  store i32 %43, ptr %8, align 4
  br label %44

44:                                               ; preds = %34
  %45 = load i8, ptr %10, align 1
  %46 = add i8 %45, 1
  store i8 %46, ptr %10, align 1
  br label %27, !llvm.loop !103

47:                                               ; preds = %27
  %48 = load ptr, ptr %7, align 8
  %49 = load i32, ptr @hf_gsm_a_rr_ec_imsi, align 4
  %50 = load ptr, ptr %5, align 8
  %51 = load i32, ptr %12, align 4
  %52 = load i32, ptr %8, align 4
  %53 = load i32, ptr %12, align 4
  %54 = sub i32 %52, %53
  %55 = add i32 %54, 7
  %56 = lshr i32 %55, 3
  %57 = load ptr, ptr %11, align 8
  %58 = call ptr @wmem_strbuf_finalize(ptr noundef %57)
  %59 = call ptr @proto_tree_add_string(ptr noundef %48, i32 noundef %49, ptr noundef %50, i32 noundef %51, i32 noundef %56, ptr noundef %58)
  %60 = load i32, ptr %8, align 4
  call void @llvm.lifetime.end.p0(i64 4, ptr %12) #11
  call void @llvm.lifetime.end.p0(i64 8, ptr %11) #11
  call void @llvm.lifetime.end.p0(i64 1, ptr %10) #11
  call void @llvm.lifetime.end.p0(i64 8, ptr %9) #11
  ret i32 %60
}