; Function Attrs: null_pointer_is_valid sspstrong uwtable
define internal fastcc noundef i32 @dtap_rr_ec_paging_imsi(ptr noundef %0, ptr noundef readonly captures(none) %1, ptr noundef %2, i32 noundef %3) unnamed_addr #3 {
  %5 = alloca i64, align 8
  call void @llvm.lifetime.start.p0(i64 8, ptr nonnull %5) #11
  %6 = load i32, ptr @hf_gsm_a_rr_ec_imsi_digits, align 4
  %7 = call ptr @proto_tree_add_bits_ret_val(ptr noundef %2, i32 noundef %6, ptr noundef %0, i32 noundef %3, i32 noundef 4, ptr noundef nonnull %5, i32 noundef 0)
  %8 = add i32 %3, 4
  %9 = getelementptr inbounds nuw i8, ptr %1, i64 408
  %10 = load ptr, ptr %9, align 8
  %11 = load i64, ptr %5, align 8
  %12 = add i64 %11, 2
  %13 = call noalias ptr @wmem_strbuf_new_sized(ptr noundef %10, i64 noundef %12)
  br label %14

14:                                               ; preds = %4, %14
  %.020 = phi i32 [ %8, %4 ], [ %19, %14 ]
  %.01819 = phi i8 [ 0, %4 ], [ %20, %14 ]
  %15 = call zeroext i8 @tvb_get_bits8(ptr noundef %0, i32 noundef %.020, i32 noundef 4)
  %16 = zext i8 %15 to i64
  %17 = getelementptr [16 x i8], ptr @digits, i64 0, i64 %16
  %18 = load i8, ptr %17, align 1
  call void @wmem_strbuf_append_c(ptr noundef %13, i8 noundef signext %18)
  %19 = add i32 %.020, 4
  %20 = add i8 %.01819, 1
  %21 = zext i8 %20 to i32
  %22 = load i64, ptr %5, align 8
  %23 = trunc i64 %22 to i32
  %24 = and i32 %23, 255
  %.not = icmp samesign ult i32 %24, %21
  br i1 %.not, label %25, label %14, !llvm.loop !101

25:                                               ; preds = %14
  %26 = load i32, ptr @hf_gsm_a_rr_ec_imsi, align 4
  %27 = sub i32 %.020, %3
  %28 = add i32 %27, 7
  %29 = lshr i32 %28, 3
  %30 = call ptr @wmem_strbuf_finalize(ptr noundef %13)
  %31 = call ptr @proto_tree_add_string(ptr noundef %2, i32 noundef %26, ptr noundef %0, i32 noundef %8, i32 noundef %29, ptr noundef %30)
  call void @llvm.lifetime.end.p0(i64 8, ptr nonnull %5) #11
  ret i32 %19
}